target datalayout = "e-m:e-p270:32:32-p271:32:32-p272:64:64-i64:64-i128:128-f80:128-n8:16:32:64-S128"
target triple = "x86_64-pc-linux-gnu"

; Function Attrs: inlinehint nounwind uwtable
define internal void @rgb15tobgr24_c(ptr noundef %0, ptr noundef %1, i32 noundef %2) #4 {
  %4 = alloca ptr, align 8
  %5 = alloca ptr, align 8
  %6 = alloca i32, align 4
  %7 = alloca ptr, align 8
  %8 = alloca ptr, align 8
  %9 = alloca ptr, align 8
  %10 = alloca i16, align 2
  store ptr %0, ptr %4, align 8, !tbaa !4
  store ptr %1, ptr %5, align 8, !tbaa !4
  store i32 %2, ptr %6, align 4, !tbaa !9
  call void @llvm.lifetime.start.p0(i64 8, ptr %7) #5
  %11 = load ptr, ptr %5, align 8, !tbaa !4
  store ptr %11, ptr %7, align 8, !tbaa !4
  call void @llvm.lifetime.start.p0(i64 8, ptr %8) #5
  %12 = load ptr, ptr %4, align 8, !tbaa !4
  store ptr %12, ptr %8, align 8, !tbaa !20
  call void @llvm.lifetime.start.p0(i64 8, ptr %9) #5
  %13 = load ptr, ptr %8, align 8, !tbaa !20
  %14 = load i32, ptr %6, align 4, !tbaa !9
  %15 = sdiv i32 %14, 2
  %16 = sext i32 %15 to i64
  %17 = getelementptr inbounds i16, ptr %13, i64 %16
  store ptr %17, ptr %9, align 8, !tbaa !20
  br label %18

18:                                               ; preds = %22, %3
  %19 = load ptr, ptr %8, align 8, !tbaa !20
  %20 = load ptr, ptr %9, align 8, !tbaa !20
  %21 = icmp ult ptr %19, %20
  br i1 %21, label %22, label %62

22:                                               ; preds = %18
  call void @llvm.lifetime.start.p0(i64 2, ptr %10) #5
  %23 = load ptr, ptr %8, align 8, !tbaa !20
  %24 = getelementptr inbounds nuw i16, ptr %23, i32 1
  store ptr %24, ptr %8, align 8, !tbaa !20
  %25 = load i16, ptr %23, align 2, !tbaa !22
  store i16 %25, ptr %10, align 2, !tbaa !22
  %26 = load i16, ptr %10, align 2, !tbaa !22
  %27 = zext i16 %26 to i32
  %28 = and i32 %27, 31
  %29 = shl i32 %28, 3
  %30 = load i16, ptr %10, align 2, !tbaa !22
  %31 = zext i16 %30 to i32
  %32 = and i32 %31, 31
  %33 = ashr i32 %32, 2
  %34 = or i32 %29, %33
  %35 = trunc i32 %34 to i8
  %36 = load ptr, ptr %7, align 8, !tbaa !4
  %37 = getelementptr inbounds nuw i8, ptr %36, i32 1
  store ptr %37, ptr %7, align 8, !tbaa !4
  store i8 %35, ptr %36, align 1, !tbaa !13
  %38 = load i16, ptr %10, align 2, !tbaa !22
  %39 = zext i16 %38 to i32
  %40 = and i32 %39, 992
  %41 = ashr i32 %40, 2
  %42 = load i16, ptr %10, align 2, !tbaa !22
  %43 = zext i16 %42 to i32
  %44 = and i32 %43, 992
  %45 = ashr i32 %44, 7
  %46 = or i32 %41, %45
  %47 = trunc i32 %46 to i8
  %48 = load ptr, ptr %7, align 8, !tbaa !4
  %49 = getelementptr inbounds nuw i8, ptr %48, i32 1
  store ptr %49, ptr %7, align 8, !tbaa !4
  store i8 %47, ptr %48, align 1, !tbaa !13
  %50 = load i16, ptr %10, align 2, !tbaa !22
  %51 = zext i16 %50 to i32
  %52 = and i32 %51, 31744
  %53 = ashr i32 %52, 7
  %54 = load i16, ptr %10, align 2, !tbaa !22
  %55 = zext i16 %54 to i32
  %56 = and i32 %55, 31744
  %57 = ashr i32 %56, 12
  %58 = or i32 %53, %57
  %59 = trunc i32 %58 to i8
  %60 = load ptr, ptr %7, align 8, !tbaa !4
  %61 = getelementptr inbounds nuw i8, ptr %60, i32 1
  store ptr %61, ptr %7, align 8, !tbaa !4
  store i8 %59, ptr %60, align 1, !tbaa !13
  call void @llvm.lifetime.end.p0(i64 2, ptr %10) #5
  br label %18, !llvm.loop !53

62:                                               ; preds = %18
  call void @llvm.lifetime.end.p0(i64 8, ptr %9) #5
  call void @llvm.lifetime.end.p0(i64 8, ptr %8) #5
  call void @llvm.lifetime.end.p0(i64 8, ptr %7) #5
  ret void
}